target datalayout = "e-m:e-p270:32:32-p271:32:32-p272:64:64-i64:64-i128:128-f80:128-n8:16:32:64-S128"
target triple = "x86_64-pc-linux-gnu"

%struct.tag_AlsaPcmInfo = type { ptr, ptr, ptr, i32, i32, i32, i64, i16, i16, ptr }

; Function Attrs: nounwind uwtable
define hidden i64 @estimatePositionFromAvail(ptr noundef %0, i32 noundef %1, i64 noundef %2, i32 noundef %3) #0 {
  %5 = alloca i64, align 8
  %6 = alloca ptr, align 8
  %7 = alloca i32, align 4
  %8 = alloca i64, align 8
  %9 = alloca i32, align 4
  store ptr %0, ptr %6, align 8
  store i32 %1, ptr %7, align 4
  store i64 %2, ptr %8, align 8
  store i32 %3, ptr %9, align 4
  %10 = load i32, ptr %7, align 4
  %11 = icmp ne i32 %10, 0
  br i1 %11, label %12, label %22

12:                                               ; preds = %4
  %13 = load i64, ptr %8, align 8
  %14 = load ptr, ptr %6, align 8
  %15 = getelementptr inbounds %struct.tag_AlsaPcmInfo, ptr %14, i32 0, i32 3
  %16 = load i32, ptr %15, align 8
  %17 = sext i32 %16 to i64
  %18 = sub nsw i64 %13, %17
  %19 = load i32, ptr %9, align 4
  %20 = sext i32 %19 to i64
  %21 = add nsw i64 %18, %20
  store i64 %21, ptr %5, align 8
  br label %27

22:                                               ; preds = %4
  %23 = load i64, ptr %8, align 8
  %24 = load i32, ptr %9, align 4
  %25 = sext i32 %24 to i64
  %26 = add nsw i64 %23, %25
  store i64 %26, ptr %5, align 8
  br label %27

27:                                               ; preds = %22, %12
  %28 = load i64, ptr %5, align 8
  ret i64 %28
}