; Function Attrs: mustprogress nofree norecurse nosync nounwind willreturn memory(argmem: read) uwtable
define hidden i64 @estimatePositionFromAvail(ptr nocapture noundef readonly %0, i32 noundef %1, i64 noundef %2, i32 noundef %3) local_unnamed_addr #5 {
  %.not = icmp eq i32 %1, 0
  br i1 %.not, label %12, label %5

5:                                                ; preds = %4
  %6 = getelementptr inbounds i8, ptr %0, i64 24
  %7 = load i32, ptr %6, align 8
  %8 = sext i32 %7 to i64
  %9 = sext i32 %3 to i64
  %10 = add i64 %9, %2
  %11 = sub i64 %10, %8
  br label %15

12:                                               ; preds = %4
  %13 = sext i32 %3 to i64
  %14 = add nsw i64 %13, %2
  br label %15

15:                                               ; preds = %12, %5
  %.0 = phi i64 [ %11, %5 ], [ %14, %12 ]
  ret i64 %.0
}